target datalayout = "e-m:e-p270:32:32-p271:32:32-p272:64:64-i64:64-i128:128-f80:128-n8:16:32:64-S128"
target triple = "x86_64-unknown-linux-gnu"

%"class.icu_75::UnicodeString" = type { %"class.icu_75::Replaceable", %"union.icu_75::UnicodeString::StackBufferOrFields" }
%"class.icu_75::Replaceable" = type { %"class.icu_75::UObject" }
%"class.icu_75::UObject" = type { ptr }
%"union.icu_75::UnicodeString::StackBufferOrFields" = type { %struct.anon.0, [32 x i8] }
%struct.anon.0 = type { i16, i32, i32, ptr }
%"class.icu_75::ConstChar16Ptr" = type { ptr }

; Function Attrs: mustprogress nounwind uwtable
define internal noundef signext i8 @_ZL9U_FAILURE10UErrorCode(i32 noundef %code) #1 {
entry:
  %code.addr = alloca i32, align 4
  store i32 %code, ptr %code.addr, align 4
  %0 = load i32, ptr %code.addr, align 4
  %cmp = icmp sgt i32 %0, 0
  %conv = zext i1 %cmp to i8
  ret i8 %conv
}

; Function Attrs: mustprogress nounwind uwtable
define linkonce_odr void @_ZN6icu_7514ConstChar16PtrD2Ev(ptr noundef nonnull align 8 dereferenceable(8) %this) unnamed_addr #1 comdat align 2 {
entry:
  %this.addr = alloca ptr, align 8
  store ptr %this, ptr %this.addr, align 8
  %this1 = load ptr, ptr %this.addr, align 8
  %p_ = getelementptr inbounds %"class.icu_75::ConstChar16Ptr", ptr %this1, i32 0, i32 0
  %0 = load ptr, ptr %p_, align 8
  call void asm sideeffect "", "rm,~{memory},~{dirflag},~{fpsr},~{flags}"(ptr %0) #5, !srcloc !4
  ret void
}

; Function Attrs: mustprogress nounwind uwtable
define linkonce_odr void @_ZN6icu_7514ConstChar16PtrC2EPKDs(ptr noundef nonnull align 8 dereferenceable(8) %this, ptr noundef %p) unnamed_addr #1 comdat align 2 {
entry:
  %this.addr = alloca ptr, align 8
  %p.addr = alloca ptr, align 8
  store ptr %this, ptr %this.addr, align 8
  store ptr %p, ptr %p.addr, align 8
  %this1 = load ptr, ptr %this.addr, align 8
  %p_ = getelementptr inbounds %"class.icu_75::ConstChar16Ptr", ptr %this1, i32 0, i32 0
  %0 = load ptr, ptr %p.addr, align 8
  store ptr %0, ptr %p_, align 8
  ret void
}

; Function Attrs: mustprogress uwtable
define ptr @uset_openPatternOptions_75(ptr noundef %pattern, i32 noundef %patternLength, i32 noundef %options, ptr noundef %ec) #0 personality ptr @__gxx_personality_v0 {
entry:
  %retval = alloca ptr, align 8
  %pattern.addr = alloca ptr, align 8
  %patternLength.addr = alloca i32, align 4
  %options.addr = alloca i32, align 4
  %ec.addr = alloca ptr, align 8
  %pat = alloca %"class.icu_75::UnicodeString", align 8
  %agg.tmp = alloca %"class.icu_75::ConstChar16Ptr", align 8
  %exn.slot = alloca ptr, align 8
  %ehselector.slot = alloca i32, align 4
  %set = alloca ptr, align 8
  %saved-rvalue = alloca ptr, align 8
  %cleanup.cond = alloca i1, align 1
  %cleanup.dest.slot = alloca i32, align 4
  store ptr %pattern, ptr %pattern.addr, align 8
  store i32 %patternLength, ptr %patternLength.addr, align 4
  store i32 %options, ptr %options.addr, align 4
  store ptr %ec, ptr %ec.addr, align 8
  %0 = load i32, ptr %patternLength.addr, align 4
  %cmp = icmp eq i32 %0, -1
  %conv = zext i1 %cmp to i8
  %1 = load ptr, ptr %pattern.addr, align 8
  call void @_ZN6icu_7514ConstChar16PtrC2EPKDs(ptr noundef nonnull align 8 dereferenceable(8) %agg.tmp, ptr noundef %1)
  %2 = load i32, ptr %patternLength.addr, align 4
  invoke void @_ZN6icu_7513UnicodeStringC1EaNS_14ConstChar16PtrEi(ptr noundef nonnull align 8 dereferenceable(64) %pat, i8 noundef signext %conv, ptr noundef %agg.tmp, i32 noundef %2)
          to label %invoke.cont unwind label %lpad

invoke.cont:                                      ; preds = %entry
  call void @_ZN6icu_7514ConstChar16PtrD2Ev(ptr noundef nonnull align 8 dereferenceable(8) %agg.tmp) #5
  %call = call noundef ptr @_ZN6icu_757UMemorynwEm(i64 noundef 200) #5
  %new.isnull = icmp eq ptr %call, null
  store i1 false, ptr %cleanup.cond, align 1
  br i1 %new.isnull, label %new.cont, label %new.notnull

new.notnull:                                      ; preds = %invoke.cont
  store ptr %call, ptr %saved-rvalue, align 8
  store i1 true, ptr %cleanup.cond, align 1
  %3 = load i32, ptr %options.addr, align 4
  %4 = load ptr, ptr %ec.addr, align 8
  invoke void @_ZN6icu_7510UnicodeSetC1ERKNS_13UnicodeStringEjPKNS_11SymbolTableER10UErrorCode(ptr noundef nonnull align 8 dereferenceable(200) %call, ptr noundef nonnull align 8 dereferenceable(64) %pat, i32 noundef %3, ptr noundef null, ptr noundef nonnull align 4 dereferenceable(4) %4)
          to label %invoke.cont2 unwind label %lpad1

invoke.cont2:                                     ; preds = %new.notnull
  br label %new.cont

new.cont:                                         ; preds = %invoke.cont2, %invoke.cont
  %5 = phi ptr [ %call, %invoke.cont2 ], [ null, %invoke.cont ]
  store ptr %5, ptr %set, align 8
  %6 = load ptr, ptr %set, align 8
  %cmp3 = icmp eq ptr %6, null
  br i1 %cmp3, label %if.then, label %if.end

if.then:                                          ; preds = %new.cont
  %7 = load ptr, ptr %ec.addr, align 8
  store i32 7, ptr %7, align 4
  store ptr null, ptr %retval, align 8
  store i32 1, ptr %cleanup.dest.slot, align 4
  br label %cleanup

lpad:                                             ; preds = %entry
  %8 = landingpad { ptr, i32 }
          cleanup
  %9 = extractvalue { ptr, i32 } %8, 0
  store ptr %9, ptr %exn.slot, align 8
  %10 = extractvalue { ptr, i32 } %8, 1
  store i32 %10, ptr %ehselector.slot, align 4
  call void @_ZN6icu_7514ConstChar16PtrD2Ev(ptr noundef nonnull align 8 dereferenceable(8) %agg.tmp) #5
  br label %eh.resume

lpad1:                                            ; preds = %new.notnull
  %11 = landingpad { ptr, i32 }
          cleanup
  %12 = extractvalue { ptr, i32 } %11, 0
  store ptr %12, ptr %exn.slot, align 8
  %13 = extractvalue { ptr, i32 } %11, 1
  store i32 %13, ptr %ehselector.slot, align 4
  %cleanup.is_active = load i1, ptr %cleanup.cond, align 1
  br i1 %cleanup.is_active, label %cleanup.action, label %cleanup.done

cleanup.action:                                   ; preds = %lpad1
  %14 = load ptr, ptr %saved-rvalue, align 8
  call void @_ZN6icu_757UMemorydlEPv(ptr noundef %14) #5
  br label %cleanup.done

cleanup.done:                                     ; preds = %cleanup.action, %lpad1
  br label %ehcleanup

if.end:                                           ; preds = %new.cont
  %15 = load ptr, ptr %ec.addr, align 8
  %16 = load i32, ptr %15, align 4
  %call6 = invoke noundef signext i8 @_ZL9U_FAILURE10UErrorCode(i32 noundef %16)
          to label %invoke.cont5 unwind label %lpad4

invoke.cont5:                                     ; preds = %if.end
  %tobool = icmp ne i8 %call6, 0
  br i1 %tobool, label %if.then7, label %if.end8

if.then7:                                         ; preds = %invoke.cont5
  %17 = load ptr, ptr %set, align 8
  %isnull = icmp eq ptr %17, null
  br i1 %isnull, label %delete.end, label %delete.notnull

delete.notnull:                                   ; preds = %if.then7
  call void @_ZN6icu_7510UnicodeSetD1Ev(ptr noundef nonnull align 8 dereferenceable(200) %17) #5
  call void @_ZN6icu_757UMemorydlEPv(ptr noundef %17) #5
  br label %delete.end

delete.end:                                       ; preds = %delete.notnull, %if.then7
  store ptr null, ptr %set, align 8
  br label %if.end8

lpad4:                                            ; preds = %if.end
  %18 = landingpad { ptr, i32 }
          cleanup
  %19 = extractvalue { ptr, i32 } %18, 0
  store ptr %19, ptr %exn.slot, align 8
  %20 = extractvalue { ptr, i32 } %18, 1
  store i32 %20, ptr %ehselector.slot, align 4
  br label %ehcleanup

if.end8:                                          ; preds = %delete.end, %invoke.cont5
  %21 = load ptr, ptr %set, align 8
  store ptr %21, ptr %retval, align 8
  store i32 1, ptr %cleanup.dest.slot, align 4
  br label %cleanup

cleanup:                                          ; preds = %if.end8, %if.then
  call void @_ZN6icu_7513UnicodeStringD1Ev(ptr noundef nonnull align 8 dereferenceable(64) %pat) #5
  %22 = load ptr, ptr %retval, align 8
  ret ptr %22

ehcleanup:                                        ; preds = %lpad4, %cleanup.done
  call void @_ZN6icu_7513UnicodeStringD1Ev(ptr noundef nonnull align 8 dereferenceable(64) %pat) #5
  br label %eh.resume

eh.resume:                                        ; preds = %ehcleanup, %lpad
  %exn = load ptr, ptr %exn.slot, align 8
  %sel = load i32, ptr %ehselector.slot, align 4
  %lpad.val = insertvalue { ptr, i32 } poison, ptr %exn, 0
  %lpad.val9 = insertvalue { ptr, i32 } %lpad.val, i32 %sel, 1
  resume { ptr, i32 } %lpad.val9
}